target datalayout = "e-m:e-p270:32:32-p271:32:32-p272:64:64-i64:64-i128:128-f80:128-n8:16:32:64-S128"
target triple = "x86_64-pc-linux-gnu"

%struct.FLAC__StreamMetadata = type { i32, i32, i32, %union.anon }
%union.anon = type { %struct.FLAC__StreamMetadata_CueSheet }
%struct.FLAC__StreamMetadata_CueSheet = type { [129 x i8], i64, i32, i32, ptr }

@.str.5 = private unnamed_addr constant [24 x i8] c"memory allocation error\00", align 1
@FLAC__Metadata_ChainStatusString = external constant [0 x ptr], align 8

; Function Attrs: nounwind sspstrong uwtable
define internal ptr @store_to_file_pre_(ptr noundef %0, ptr noundef %1, ptr noundef %2) #0 {
  %4 = alloca ptr, align 8
  %5 = alloca ptr, align 8
  %6 = alloca ptr, align 8
  %7 = alloca ptr, align 8
  %8 = alloca ptr, align 8
  %9 = alloca ptr, align 8
  %10 = alloca i32, align 4
  %11 = alloca i32, align 4
  store ptr %0, ptr %5, align 8, !tbaa !28
  store ptr %1, ptr %6, align 8, !tbaa !54
  store ptr %2, ptr %7, align 8, !tbaa !56
  call void @llvm.lifetime.start.p0(i64 8, ptr %8) #8
  call void @llvm.lifetime.start.p0(i64 8, ptr %9) #8
  call void @llvm.lifetime.start.p0(i64 4, ptr %10) #8
  store i32 0, ptr %10, align 4, !tbaa !4
  %12 = call ptr @FLAC__metadata_chain_new()
  %13 = load ptr, ptr %6, align 8, !tbaa !54
  store ptr %12, ptr %13, align 8, !tbaa !52
  %14 = icmp eq ptr null, %12
  br i1 %14, label %15, label %16

15:                                               ; preds = %3
  store ptr @.str.5, ptr %4, align 8
  store i32 1, ptr %11, align 4
  br label %101

16:                                               ; preds = %3
  %17 = load ptr, ptr %6, align 8, !tbaa !54
  %18 = load ptr, ptr %17, align 8, !tbaa !52
  %19 = load ptr, ptr %5, align 8, !tbaa !28
  %20 = call i32 @FLAC__metadata_chain_read(ptr noundef %18, ptr noundef %19)
  %21 = icmp ne i32 %20, 0
  br i1 %21, label %32, label %22

22:                                               ; preds = %16
  %23 = load ptr, ptr %6, align 8, !tbaa !54
  %24 = load ptr, ptr %23, align 8, !tbaa !52
  %25 = call i32 @FLAC__metadata_chain_status(ptr noundef %24)
  %26 = zext i32 %25 to i64
  %27 = getelementptr inbounds nuw [0 x ptr], ptr @FLAC__Metadata_ChainStatusString, i64 0, i64 %26
  %28 = load ptr, ptr %27, align 8, !tbaa !28
  store ptr %28, ptr %9, align 8, !tbaa !28
  %29 = load ptr, ptr %6, align 8, !tbaa !54
  %30 = load ptr, ptr %29, align 8, !tbaa !52
  call void @FLAC__metadata_chain_delete(ptr noundef %30)
  %31 = load ptr, ptr %9, align 8, !tbaa !28
  store ptr %31, ptr %4, align 8
  store i32 1, ptr %11, align 4
  br label %101

32:                                               ; preds = %16
  %33 = call ptr @FLAC__metadata_iterator_new()
  store ptr %33, ptr %8, align 8, !tbaa !58
  %34 = icmp eq ptr null, %33
  br i1 %34, label %35, label %38

35:                                               ; preds = %32
  %36 = load ptr, ptr %6, align 8, !tbaa !54
  %37 = load ptr, ptr %36, align 8, !tbaa !52
  call void @FLAC__metadata_chain_delete(ptr noundef %37)
  store ptr @.str.5, ptr %4, align 8
  store i32 1, ptr %11, align 4
  br label %101

38:                                               ; preds = %32
  %39 = load ptr, ptr %8, align 8, !tbaa !58
  %40 = load ptr, ptr %6, align 8, !tbaa !54
  %41 = load ptr, ptr %40, align 8, !tbaa !52
  call void @FLAC__metadata_iterator_init(ptr noundef %39, ptr noundef %41)
  br label %42

42:                                               ; preds = %60, %38
  %43 = load ptr, ptr %8, align 8, !tbaa !58
  %44 = call ptr @FLAC__metadata_iterator_get_block(ptr noundef %43)
  %45 = load ptr, ptr %7, align 8, !tbaa !56
  store ptr %44, ptr %45, align 8, !tbaa !44
  %46 = load ptr, ptr %7, align 8, !tbaa !56
  %47 = load ptr, ptr %46, align 8, !tbaa !44
  %48 = getelementptr inbounds nuw %struct.FLAC__StreamMetadata, ptr %47, i32 0, i32 0
  %49 = load i32, ptr %48, align 8, !tbaa !46
  %50 = icmp eq i32 %49, 4
  br i1 %50, label %51, label %52

51:                                               ; preds = %42
  store i32 1, ptr %10, align 4, !tbaa !4
  br label %52

52:                                               ; preds = %51, %42
  br label %53

53:                                               ; preds = %52
  %54 = load i32, ptr %10, align 4, !tbaa !4
  %55 = icmp ne i32 %54, 0
  br i1 %55, label %60, label %56

56:                                               ; preds = %53
  %57 = load ptr, ptr %8, align 8, !tbaa !58
  %58 = call i32 @FLAC__metadata_iterator_next(ptr noundef %57)
  %59 = icmp ne i32 %58, 0
  br label %60

60:                                               ; preds = %56, %53
  %61 = phi i1 [ false, %53 ], [ %59, %56 ]
  br i1 %61, label %42, label %62, !llvm.loop !60

62:                                               ; preds = %60
  %63 = load i32, ptr %10, align 4, !tbaa !4
  %64 = icmp ne i32 %63, 0
  br i1 %64, label %99, label %65

65:                                               ; preds = %62
  %66 = call ptr @FLAC__metadata_object_new(i32 noundef 4)
  %67 = load ptr, ptr %7, align 8, !tbaa !56
  store ptr %66, ptr %67, align 8, !tbaa !44
  %68 = load ptr, ptr %7, align 8, !tbaa !56
  %69 = load ptr, ptr %68, align 8, !tbaa !44
  %70 = icmp eq ptr null, %69
  br i1 %70, label %71, label %75

71:                                               ; preds = %65
  %72 = load ptr, ptr %6, align 8, !tbaa !54
  %73 = load ptr, ptr %72, align 8, !tbaa !52
  call void @FLAC__metadata_chain_delete(ptr noundef %73)
  %74 = load ptr, ptr %8, align 8, !tbaa !58
  call void @FLAC__metadata_iterator_delete(ptr noundef %74)
  store ptr @.str.5, ptr %4, align 8
  store i32 1, ptr %11, align 4
  br label %101

75:                                               ; preds = %65
  br label %76

76:                                               ; preds = %80, %75
  %77 = load ptr, ptr %8, align 8, !tbaa !58
  %78 = call i32 @FLAC__metadata_iterator_next(ptr noundef %77)
  %79 = icmp ne i32 %78, 0
  br i1 %79, label %80, label %81

80:                                               ; preds = %76
  br label %76, !llvm.loop !61

81:                                               ; preds = %76
  %82 = load ptr, ptr %8, align 8, !tbaa !58
  %83 = load ptr, ptr %7, align 8, !tbaa !56
  %84 = load ptr, ptr %83, align 8, !tbaa !44
  %85 = call i32 @FLAC__metadata_iterator_insert_block_after(ptr noundef %82, ptr noundef %84)
  %86 = icmp ne i32 %85, 0
  br i1 %86, label %98, label %87

87:                                               ; preds = %81
  %88 = load ptr, ptr %6, align 8, !tbaa !54
  %89 = load ptr, ptr %88, align 8, !tbaa !52
  %90 = call i32 @FLAC__metadata_chain_status(ptr noundef %89)
  %91 = zext i32 %90 to i64
  %92 = getelementptr inbounds nuw [0 x ptr], ptr @FLAC__Metadata_ChainStatusString, i64 0, i64 %91
  %93 = load ptr, ptr %92, align 8, !tbaa !28
  store ptr %93, ptr %9, align 8, !tbaa !28
  %94 = load ptr, ptr %6, align 8, !tbaa !54
  %95 = load ptr, ptr %94, align 8, !tbaa !52
  call void @FLAC__metadata_chain_delete(ptr noundef %95)
  %96 = load ptr, ptr %8, align 8, !tbaa !58
  call void @FLAC__metadata_iterator_delete(ptr noundef %96)
  %97 = load ptr, ptr %9, align 8, !tbaa !28
  store ptr %97, ptr %4, align 8
  store i32 1, ptr %11, align 4
  br label %101

98:                                               ; preds = %81
  br label %99

99:                                               ; preds = %98, %62
  %100 = load ptr, ptr %8, align 8, !tbaa !58
  call void @FLAC__metadata_iterator_delete(ptr noundef %100)
  store ptr null, ptr %4, align 8
  store i32 1, ptr %11, align 4
  br label %101

101:                                              ; preds = %99, %87, %71, %35, %22, %15
  call void @llvm.lifetime.end.p0(i64 4, ptr %10) #8
  call void @llvm.lifetime.end.p0(i64 8, ptr %9) #8
  call void @llvm.lifetime.end.p0(i64 8, ptr %8) #8
  %102 = load ptr, ptr %4, align 8
  ret ptr %102
}