; Function Attrs: nounwind sspstrong uwtable
define internal fastcc ptr @store_to_file_pre_(ptr noundef %0, ptr noundef nonnull captures(none) initializes((0, 8)) %1, ptr noundef nonnull captures(none) %2) unnamed_addr #0 {
  %4 = tail call ptr @FLAC__metadata_chain_new() #14
  store ptr %4, ptr %1, align 8, !tbaa !42
  %5 = icmp eq ptr %4, null
  br i1 %5, label %41, label %6

6:                                                ; preds = %3
  %7 = tail call i32 @FLAC__metadata_chain_read(ptr noundef nonnull %4, ptr noundef %0) #14
  %.not = icmp eq i32 %7, 0
  br i1 %.not, label %8, label %15

8:                                                ; preds = %6
  %9 = load ptr, ptr %1, align 8, !tbaa !42
  %10 = tail call i32 @FLAC__metadata_chain_status(ptr noundef %9) #14
  %11 = zext i32 %10 to i64
  %12 = getelementptr inbounds nuw [0 x ptr], ptr @FLAC__Metadata_ChainStatusString, i64 0, i64 %11
  %13 = load ptr, ptr %12, align 8, !tbaa !44
  %14 = load ptr, ptr %1, align 8, !tbaa !42
  tail call void @FLAC__metadata_chain_delete(ptr noundef %14) #14
  br label %41

15:                                               ; preds = %6
  %16 = tail call ptr @FLAC__metadata_iterator_new() #14
  %17 = icmp eq ptr %16, null
  %18 = load ptr, ptr %1, align 8, !tbaa !42
  br i1 %17, label %19, label %20

19:                                               ; preds = %15
  tail call void @FLAC__metadata_chain_delete(ptr noundef %18) #14
  br label %41

20:                                               ; preds = %15
  tail call void @FLAC__metadata_iterator_init(ptr noundef nonnull %16, ptr noundef %18) #14
  br label %21

21:                                               ; preds = %24, %20
  %22 = tail call ptr @FLAC__metadata_iterator_get_block(ptr noundef nonnull %16) #14
  store ptr %22, ptr %2, align 8, !tbaa !40
  %23 = load i32, ptr %22, align 8, !tbaa !37
  %.not31 = icmp eq i32 %23, 4
  br i1 %.not31, label %.critedge35, label %24

24:                                               ; preds = %21
  %25 = tail call i32 @FLAC__metadata_iterator_next(ptr noundef nonnull %16) #14
  %.not32 = icmp eq i32 %25, 0
  br i1 %.not32, label %.critedge, label %21, !llvm.loop !46

.critedge:                                        ; preds = %24
  %26 = tail call ptr @FLAC__metadata_object_new(i32 noundef 4) #14
  store ptr %26, ptr %2, align 8, !tbaa !40
  %27 = icmp eq ptr %26, null
  br i1 %27, label %28, label %.preheader

28:                                               ; preds = %.critedge
  %29 = load ptr, ptr %1, align 8, !tbaa !42
  tail call void @FLAC__metadata_chain_delete(ptr noundef %29) #14
  tail call void @FLAC__metadata_iterator_delete(ptr noundef nonnull %16) #14
  br label %41

.preheader:                                       ; preds = %.critedge, %.preheader
  %30 = tail call i32 @FLAC__metadata_iterator_next(ptr noundef nonnull %16) #14
  %.not33 = icmp eq i32 %30, 0
  br i1 %.not33, label %31, label %.preheader, !llvm.loop !47

31:                                               ; preds = %.preheader
  %32 = load ptr, ptr %2, align 8, !tbaa !40
  %33 = tail call i32 @FLAC__metadata_iterator_insert_block_after(ptr noundef nonnull %16, ptr noundef %32) #14
  %.not34 = icmp eq i32 %33, 0
  br i1 %.not34, label %34, label %.critedge35

34:                                               ; preds = %31
  %35 = load ptr, ptr %1, align 8, !tbaa !42
  %36 = tail call i32 @FLAC__metadata_chain_status(ptr noundef %35) #14
  %37 = zext i32 %36 to i64
  %38 = getelementptr inbounds nuw [0 x ptr], ptr @FLAC__Metadata_ChainStatusString, i64 0, i64 %37
  %39 = load ptr, ptr %38, align 8, !tbaa !44
  %40 = load ptr, ptr %1, align 8, !tbaa !42
  tail call void @FLAC__metadata_chain_delete(ptr noundef %40) #14
  tail call void @FLAC__metadata_iterator_delete(ptr noundef nonnull %16) #14
  br label %41

.critedge35:                                      ; preds = %21, %31
  tail call void @FLAC__metadata_iterator_delete(ptr noundef nonnull %16) #14
  br label %41

41:                                               ; preds = %3, %.critedge35, %34, %28, %19, %8
  %.027 = phi ptr [ @.str.5, %19 ], [ null, %.critedge35 ], [ @.str.5, %28 ], [ %39, %34 ], [ %13, %8 ], [ @.str.5, %3 ]
  ret ptr %.027
}